target datalayout = "e-m:e-p270:32:32-p271:32:32-p272:64:64-i64:64-i128:128-f80:128-n8:16:32:64-S128"
target triple = "x86_64-pc-linux-gnu"

@.str.64 = private unnamed_addr constant [3 x i8] c", \00", align 1
@MONTH_NAMES = internal global [12 x ptr] [ptr @.str.93, ptr @.str.94, ptr @.str.95, ptr @.str.96, ptr @.str.97, ptr @.str.98, ptr @.str.99, ptr @.str.100, ptr @.str.105, ptr @.str.102, ptr @.str.103, ptr @.str.104], align 16

; Function Attrs: nounwind uwtable
define internal i32 @print_bit_month(ptr noundef %0, ptr noundef %1) #0 {
  %3 = alloca i32, align 4
  %4 = alloca ptr, align 8
  %5 = alloca ptr, align 8
  %6 = alloca i32, align 4
  %7 = alloca i32, align 4
  %8 = alloca i32, align 4
  store ptr %0, ptr %4, align 8, !tbaa !56
  store ptr %1, ptr %5, align 8, !tbaa !90
  call void @llvm.lifetime.start.p0(i64 4, ptr %6) #4
  store i32 0, ptr %6, align 4, !tbaa !58
  call void @llvm.lifetime.start.p0(i64 4, ptr %7) #4
  store i32 0, ptr %7, align 4, !tbaa !58
  br label %9

9:                                                ; preds = %38, %2
  %10 = load i32, ptr %6, align 4, !tbaa !58
  %11 = icmp sle i32 %10, 11
  br i1 %11, label %12, label %41

12:                                               ; preds = %9
  %13 = load ptr, ptr %5, align 8, !tbaa !90
  %14 = load i32, ptr %6, align 4, !tbaa !58
  %15 = call i32 @ASN1_BIT_STRING_get_bit(ptr noundef %13, i32 noundef %14)
  %16 = icmp ne i32 %15, 0
  br i1 %16, label %17, label %37

17:                                               ; preds = %12
  %18 = load i32, ptr %7, align 4, !tbaa !58
  %19 = icmp sgt i32 %18, 0
  br i1 %19, label %20, label %25

20:                                               ; preds = %17
  %21 = load ptr, ptr %4, align 8, !tbaa !56
  %22 = call i32 @BIO_puts(ptr noundef %21, ptr noundef @.str.64)
  %23 = icmp ne i32 %22, 0
  br i1 %23, label %25, label %24

24:                                               ; preds = %20
  store i32 0, ptr %3, align 4
  store i32 1, ptr %8, align 4
  br label %42

25:                                               ; preds = %20, %17
  %26 = load i32, ptr %7, align 4, !tbaa !58
  %27 = add nsw i32 %26, 1
  store i32 %27, ptr %7, align 4, !tbaa !58
  %28 = load ptr, ptr %4, align 8, !tbaa !56
  %29 = load i32, ptr %6, align 4, !tbaa !58
  %30 = sext i32 %29 to i64
  %31 = getelementptr inbounds [12 x ptr], ptr @MONTH_NAMES, i64 0, i64 %30
  %32 = load ptr, ptr %31, align 8, !tbaa !108
  %33 = call i32 @BIO_puts(ptr noundef %28, ptr noundef %32)
  %34 = icmp ne i32 %33, 0
  br i1 %34, label %36, label %35

35:                                               ; preds = %25
  store i32 0, ptr %3, align 4
  store i32 1, ptr %8, align 4
  br label %42

36:                                               ; preds = %25
  br label %37

37:                                               ; preds = %36, %12
  br label %38

38:                                               ; preds = %37
  %39 = load i32, ptr %6, align 4, !tbaa !58
  %40 = add nsw i32 %39, 1
  store i32 %40, ptr %6, align 4, !tbaa !58
  br label %9, !llvm.loop !111

41:                                               ; preds = %9
  store i32 1, ptr %3, align 4
  store i32 1, ptr %8, align 4
  br label %42

42:                                               ; preds = %41, %35, %24
  call void @llvm.lifetime.end.p0(i64 4, ptr %7) #4
  call void @llvm.lifetime.end.p0(i64 4, ptr %6) #4
  %43 = load i32, ptr %3, align 4
  ret i32 %43
}