; Function Attrs: nounwind uwtable
define internal fastcc range(i32 0, 2) i32 @print_bit_month(ptr noundef %0, ptr noundef %1) unnamed_addr #1 {
  br label %3

3:                                                ; preds = %2, %15
  %indvars.iv = phi i64 [ 0, %2 ], [ %indvars.iv.next, %15 ]
  %.014 = phi i32 [ 0, %2 ], [ %.1, %15 ]
  %4 = trunc nuw nsw i64 %indvars.iv to i32
  %5 = tail call i32 @ASN1_BIT_STRING_get_bit(ptr noundef %1, i32 noundef %4) #4
  %.not = icmp eq i32 %5, 0
  br i1 %.not, label %15, label %6

6:                                                ; preds = %3
  %7 = icmp sgt i32 %.014, 0
  br i1 %7, label %8, label %10

8:                                                ; preds = %6
  %9 = tail call i32 @BIO_puts(ptr noundef %0, ptr noundef nonnull @.str.64) #4
  %.not11 = icmp eq i32 %9, 0
  br i1 %.not11, label %16, label %10

10:                                               ; preds = %8, %6
  %11 = add nsw i32 %.014, 1
  %12 = getelementptr inbounds nuw [12 x ptr], ptr @MONTH_NAMES, i64 0, i64 %indvars.iv
  %13 = load ptr, ptr %12, align 8, !tbaa !45
  %14 = tail call i32 @BIO_puts(ptr noundef %0, ptr noundef %13) #4
  %.not12 = icmp eq i32 %14, 0
  br i1 %.not12, label %16, label %15

15:                                               ; preds = %3, %10
  %.1 = phi i32 [ %11, %10 ], [ %.014, %3 ]
  %indvars.iv.next = add nuw nsw i64 %indvars.iv, 1
  %exitcond.not = icmp eq i64 %indvars.iv.next, 12
  br i1 %exitcond.not, label %16, label %3, !llvm.loop !60

16:                                               ; preds = %15, %10, %8
  %.010 = phi i32 [ 0, %8 ], [ 0, %10 ], [ 1, %15 ]
  ret i32 %.010
}